target datalayout = "e-m:e-p270:32:32-p271:32:32-p272:64:64-i64:64-i128:128-f80:128-n8:16:32:64-S128"
target triple = "x86_64-unknown-linux-gnu"

; Function Attrs: mustprogress nounwind uwtable
define internal noundef signext i8 @_ZL9U_FAILURE10UErrorCode(i32 noundef %code) #0 {
entry:
  %code.addr = alloca i32, align 4
  store i32 %code, ptr %code.addr, align 4
  %0 = load i32, ptr %code.addr, align 4
  %cmp = icmp sgt i32 %0, 0
  %conv = zext i1 %cmp to i8
  ret i8 %conv
}

; Function Attrs: mustprogress uwtable
define noundef i32 @_ZNK6icu_7516EthiopicCalendar14getRelatedYearER10UErrorCode(ptr noundef nonnull align 8 dereferenceable(618) %this, ptr noundef nonnull align 4 dereferenceable(4) %status) unnamed_addr #1 align 2 {
entry:
  %retval = alloca i32, align 4
  %this.addr = alloca ptr, align 8
  %status.addr = alloca ptr, align 8
  %year = alloca i32, align 4
  store ptr %this, ptr %this.addr, align 8
  store ptr %status, ptr %status.addr, align 8
  %this1 = load ptr, ptr %this.addr, align 8
  %0 = load ptr, ptr %status.addr, align 8
  %call = call noundef i32 @_ZNK6icu_758Calendar3getE19UCalendarDateFieldsR10UErrorCode(ptr noundef nonnull align 8 dereferenceable(618) %this1, i32 noundef 19, ptr noundef nonnull align 4 dereferenceable(4) %0)
  store i32 %call, ptr %year, align 4
  %1 = load ptr, ptr %status.addr, align 8
  %2 = load i32, ptr %1, align 4
  %call2 = call noundef signext i8 @_ZL9U_FAILURE10UErrorCode(i32 noundef %2)
  %tobool = icmp ne i8 %call2, 0
  br i1 %tobool, label %if.then, label %if.end

if.then:                                          ; preds = %entry
  store i32 0, ptr %retval, align 4
  br label %return

if.end:                                           ; preds = %entry
  %3 = load i32, ptr %year, align 4
  %add = add i32 %3, 8
  store i32 %add, ptr %retval, align 4
  br label %return

return:                                           ; preds = %if.end, %if.then
  %4 = load i32, ptr %retval, align 4
  ret i32 %4
}